; Function Attrs: mustprogress nofree norecurse nosync nounwind willreturn memory(read, inaccessiblemem: none) uwtable
define i64 @_ZNK3vcg3tri2io10BreElement5PixelEv(ptr nocapture noundef nonnull readonly align 8 dereferenceable(8) %0) local_unnamed_addr #14 align 2 {
  %2 = load ptr, ptr %0, align 8
  %3 = getelementptr inbounds i8, ptr %2, i64 16
  %4 = load i64, ptr %3, align 8
  %5 = getelementptr inbounds i8, ptr %2, i64 %4
  %6 = getelementptr inbounds i8, ptr %5, i64 14
  %7 = load i16, ptr %6, align 2
  %8 = getelementptr inbounds i8, ptr %5, i64 16
  %9 = load i16, ptr %8, align 2
  %.sroa.3.0.insert.ext = zext i16 %9 to i64
  %.sroa.3.0.insert.shift = shl nuw nsw i64 %.sroa.3.0.insert.ext, 32
  %.sroa.0.0.insert.ext = zext i16 %7 to i64
  %.sroa.0.0.insert.insert = or disjoint i64 %.sroa.3.0.insert.shift, %.sroa.0.0.insert.ext
  ret i64 %.sroa.0.0.insert.insert
}